target datalayout = "e-m:e-p270:32:32-p271:32:32-p272:64:64-i64:64-i128:128-f80:128-n8:16:32:64-S128"
target triple = "x86_64-pc-linux-gnu"

%struct.xcgroup_t = type { ptr, ptr, ptr, i32, i32, i32 }

@g_cg_name = dso_local global [5 x ptr] [ptr @.str, ptr @.str.1, ptr @.str.2, ptr @.str.3, ptr @.str.4], align 16
@g_step_cgpath = internal global [5 x [4096 x i8]] zeroinitializer, align 16
@int_cg = internal global [5 x [9 x %struct.xcgroup_t]] zeroinitializer, align 16
@.str.9 = private unnamed_addr constant [34 x i8] c"cgroup subsystem %u not supported\00", align 1
@.str.16 = private unnamed_addr constant [39 x i8] c"This operation is not supported for %s\00", align 1

; Function Attrs: nounwind uwtable
define dso_local i32 @cgroup_p_step_addto(i32 noundef %0, ptr noundef %1, i32 noundef %2) #0 {
  %4 = alloca i32, align 4
  %5 = alloca i32, align 4
  %6 = alloca ptr, align 8
  %7 = alloca i32, align 4
  store i32 %0, ptr %5, align 4
  store ptr %1, ptr %6, align 8
  store i32 %2, ptr %7, align 4
  %8 = load i32, ptr %5, align 4
  %9 = zext i32 %8 to i64
  %10 = getelementptr inbounds nuw [5 x [4096 x i8]], ptr @g_step_cgpath, i64 0, i64 %9
  %11 = getelementptr inbounds [4096 x i8], ptr %10, i64 0, i64 0
  %12 = load i8, ptr %11, align 16
  %13 = sext i8 %12 to i32
  %14 = icmp eq i32 %13, 0
  br i1 %14, label %15, label %16

15:                                               ; preds = %3
  store i32 -1, ptr %4, align 4
  br label %53

16:                                               ; preds = %3
  %17 = load i32, ptr %5, align 4
  switch i32 %17, label %42 [
    i32 0, label %18
    i32 1, label %35
    i32 2, label %35
    i32 3, label %35
    i32 4, label %36
  ]

18:                                               ; preds = %16
  %19 = load i32, ptr %7, align 4
  %20 = icmp eq i32 %19, 1
  br i1 %20, label %21, label %34

21:                                               ; preds = %18
  %22 = load ptr, ptr %6, align 8
  %23 = load i32, ptr %22, align 4
  %24 = call i32 @getpid() #7
  %25 = icmp eq i32 %23, %24
  br i1 %25, label %26, label %34

26:                                               ; preds = %21
  %27 = load i32, ptr %5, align 4
  %28 = zext i32 %27 to i64
  %29 = getelementptr inbounds nuw [5 x [9 x %struct.xcgroup_t]], ptr @int_cg, i64 0, i64 %28
  %30 = getelementptr inbounds [9 x %struct.xcgroup_t], ptr %29, i64 0, i64 3
  %31 = load ptr, ptr %6, align 8
  %32 = load i32, ptr %7, align 4
  %33 = call i32 @common_cgroup_add_pids(ptr noundef %30, ptr noundef %31, i32 noundef %32)
  store i32 %33, ptr %4, align 4
  br label %53

34:                                               ; preds = %21, %18
  br label %45

35:                                               ; preds = %16, %16, %16
  br label %45

36:                                               ; preds = %16
  %37 = load i32, ptr %5, align 4
  %38 = zext i32 %37 to i64
  %39 = getelementptr inbounds nuw [5 x ptr], ptr @g_cg_name, i64 0, i64 %38
  %40 = load ptr, ptr %39, align 8
  %41 = call i32 (ptr, ...) @error(ptr noundef @.str.16, ptr noundef %40)
  store i32 -1, ptr %4, align 4
  br label %53

42:                                               ; preds = %16
  %43 = load i32, ptr %5, align 4
  %44 = call i32 (ptr, ...) @error(ptr noundef @.str.9, i32 noundef %43)
  store i32 -1, ptr %4, align 4
  br label %53

45:                                               ; preds = %35, %34
  %46 = load i32, ptr %5, align 4
  %47 = zext i32 %46 to i64
  %48 = getelementptr inbounds nuw [5 x [9 x %struct.xcgroup_t]], ptr @int_cg, i64 0, i64 %47
  %49 = getelementptr inbounds [9 x %struct.xcgroup_t], ptr %48, i64 0, i64 4
  %50 = load ptr, ptr %6, align 8
  %51 = load i32, ptr %7, align 4
  %52 = call i32 @common_cgroup_add_pids(ptr noundef %49, ptr noundef %50, i32 noundef %51)
  store i32 %52, ptr %4, align 4
  br label %53

53:                                               ; preds = %45, %42, %36, %26, %15
  %54 = load i32, ptr %4, align 4
  ret i32 %54
}