; Function Attrs: nounwind uwtable
define dso_local i32 @cgroup_p_step_addto(i32 noundef %0, ptr noundef %1, i32 noundef %2) local_unnamed_addr #0 {
  %4 = zext i32 %0 to i64
  %5 = getelementptr inbounds nuw [5 x [4096 x i8]], ptr @g_step_cgpath, i64 0, i64 %4
  %6 = load i8, ptr %5, align 16
  %7 = icmp eq i8 %6, 0
  br i1 %7, label %27, label %8

8:                                                ; preds = %3
  switch i32 %0, label %22 [
    i32 0, label %9
    i32 1, label %24
    i32 2, label %24
    i32 3, label %24
    i32 4, label %18
  ]

9:                                                ; preds = %8
  %10 = icmp eq i32 %2, 1
  br i1 %10, label %11, label %24

11:                                               ; preds = %9
  %12 = load i32, ptr %1, align 4
  %13 = tail call i32 @getpid() #11
  %14 = icmp eq i32 %12, %13
  br i1 %14, label %15, label %24

15:                                               ; preds = %11
  %16 = getelementptr inbounds nuw [5 x [9 x %struct.xcgroup_t]], ptr @int_cg, i64 0, i64 %4, i64 3
  %17 = tail call i32 @common_cgroup_add_pids(ptr noundef nonnull %16, ptr noundef nonnull %1, i32 noundef 1) #11
  br label %27

18:                                               ; preds = %8
  %19 = getelementptr inbounds nuw [5 x ptr], ptr @g_cg_name, i64 0, i64 %4
  %20 = load ptr, ptr %19, align 8
  %21 = tail call i32 (ptr, ...) @error(ptr noundef nonnull @.str.16, ptr noundef %20) #11
  br label %27

22:                                               ; preds = %8
  %23 = tail call i32 (ptr, ...) @error(ptr noundef nonnull @.str.9, i32 noundef %0) #11
  br label %27

24:                                               ; preds = %8, %8, %8, %9, %11
  %25 = getelementptr inbounds nuw [5 x [9 x %struct.xcgroup_t]], ptr @int_cg, i64 0, i64 %4, i64 4
  %26 = tail call i32 @common_cgroup_add_pids(ptr noundef nonnull %25, ptr noundef %1, i32 noundef %2) #11
  br label %27

27:                                               ; preds = %3, %24, %22, %18, %15
  %.0 = phi i32 [ -1, %22 ], [ -1, %18 ], [ %26, %24 ], [ %17, %15 ], [ -1, %3 ]
  ret i32 %.0
}